; Function Attrs: nounwind sspstrong uwtable
define internal void @release_string(ptr noundef readonly captures(none) %obj, ptr readnone captures(none) %name, ptr noundef readonly captures(none) %opaque) #0 {
entry:
  %offset.i = getelementptr inbounds nuw i8, ptr %opaque, i64 16
  %0 = load i64, ptr %offset.i, align 8
  %add.ptr.i = getelementptr i8, ptr %obj, i64 %0
  %1 = load ptr, ptr %add.ptr.i, align 8
  tail call void @g_free(ptr noundef %1) #9
  ret void
}